(dp0
S'1010300100'
p1
(dp2
(I0
I-1
tp3
F0.3053650009645493
s(I-1
I0
tp4
F0.029172251984116326
ssS'1111101000'
p5
(dp6
(I0
I1
tp7
F1.087209688094237
s(I0
I-1
tp8
F0.2930473620375653
s(I1
I0
tp9
F0.5507774232332748
s(I-1
I0
tp10
F0.2863380847494704
ssS'1010100000'
p11
(dp12
(I0
I-1
tp13
F0.4104896078909219
s(I-1
I0
tp14
F0.44304941788952185
ssS'1011100000'
p15
(dp16
(I0
I1
tp17
F2.554443360934092
s(I0
I-1
tp18
F0.2558339225624051
s(I-1
I0
tp19
F0.70287997229603
ssS'0011300000'
p20
(dp21
(I0
I1
tp22
F-0.5050248992194324
s(I0
I-1
tp23
F0.6054060100282904
ssS'1100200000'
p24
(dp25
(I1
I0
tp26
F0.3795370816270947
s(I-1
I0
tp27
F0.2381557951015972
ssS'0110200000'
p28
(dp29
(I0
I-1
tp30
F0.10829206916157685
s(I1
I0
tp31
F1.407217623543862
ssS'0101200010'
p32
(dp33
(I0
I1
tp34
F0.6382100160850946
s(I1
I0
tp35
F1.336930428768595
ssS'0011300100'
p36
(dp37
(I0
I1
tp38
F0.3736165432934354
s(I0
I-1
tp39
F0.44781202984106755
ssS'1111300010'
p40
(dp41
(I0
I1
tp42
F0.26481427464268825
s(I0
I-1
tp43
F0.8657995761740244
s(I1
I0
tp44
F0.07584052255888883
s(I-1
I0
tp45
F0.5705177035572657
ssS'0111300000'
p46
(dp47
(I0
I1
tp48
F0.3737565508847932
s(I0
I-1
tp49
F1.1724527797035655
s(I1
I0
tp50
F0.3145202668708359
ssS'0110300000'
p51
(dp52
(I0
I-1
tp53
F0.16437719873020828
s(I1
I0
tp54
F0.7000197951637652
ssS'1100210000'
p55
(dp56
(I1
I0
tp57
F0.08002001052084495
s(I-1
I0
tp58
F0.4926241604090827
ssS'1111100000'
p59
(dp60
(I0
I1
tp61
F0.1221725115063077
s(I0
I-1
tp62
F0.13375699935664498
s(I1
I0
tp63
F0.38935595512628085
s(I-1
I0
tp64
F1.1315921842526155
ssS'1100101000'
p65
(dp66
(I1
I0
tp67
F0.42538557786157805
s(I-1
I0
tp68
F0.4476551836841679
ssS'1011300000'
p69
(dp70
(I0
I1
tp71
F0.6038370351889141
s(I0
I-1
tp72
F0.24202489276010597
s(I-1
I0
tp73
F0.4000152628611624
ssS'0111200000'
p74
(dp75
(I0
I1
tp76
F0.6163202250967555
s(I0
I-1
tp77
F0.5505971984804571
s(I1
I0
tp78
F1.0508388961974005
ssS'0110201000'
p79
(dp80
(I0
I-1
tp81
F0.31718060806038517
s(I1
I0
tp82
F0.581206725965934
ssS'1111400000'
p83
(dp84
(I0
I1
tp85
F0.770746065393429
s(I0
I-1
tp86
F0.7546575482678373
s(I1
I0
tp87
F0.8870854026182012
s(I-1
I0
tp88
F0.653545994049903
ssS'0011400100'
p89
(dp90
(I0
I1
tp91
F0.4775437202081546
s(I0
I-1
tp92
F0.04501542753337779
ssS'1010100100'
p93
(dp94
(I0
I-1
tp95
F0.8115142949440027
s(I-1
I0
tp96
F0.9037876097238723
ssS'0011400000'
p97
(dp98
(I0
I1
tp99
F0.4936603056246719
s(I0
I-1
tp100
F0.43420575479587725
ssS'1100110000'
p101
(dp102
(I1
I0
tp103
F0.2384718032660612
s(I-1
I0
tp104
F0.4448810610515498
ssS'1110100000'
p105
(dp106
(I0
I-1
tp107
F0.23983580652240455
s(I1
I0
tp108
F0.22725093046159114
s(I-1
I0
tp109
F0.11058526768483312
ssS'1110210000'
p110
(dp111
(I0
I-1
tp112
F0.4826271586538104
s(I1
I0
tp113
F0.5080091956724598
s(I-1
I0
tp114
F0.06983252725962552
ssS'0011410000'
p115
(dp116
(I0
I1
tp117
F0.4178732196538831
s(I0
I-1
tp118
F0.32853299901354094
ssS'1110101000'
p119
(dp120
(I0
I-1
tp121
F0.07032398472215506
s(I1
I0
tp122
F0.03821395361204322
s(I-1
I0
tp123
F0.17025061701678457
ssS'1010300000'
p124
(dp125
(I0
I-1
tp126
F1.1473939425644475
s(I-1
I0
tp127
F0.39179913486976997
ssS'1111300000'
p128
(dp129
(I0
I1
tp130
F0.36616637831291765
s(I0
I-1
tp131
F0.5074227985094671
s(I1
I0
tp132
F1.2981233320335748
s(I-1
I0
tp133
F0.2927525479791073
ssS'1110200000'
p134
(dp135
(I0
I-1
tp136
F0.8252099745695863
s(I1
I0
tp137
F0.5598797458340775
s(I-1
I0
tp138
F0.39875250582277577
ssS'1110310000'
p139
(dp140
(I0
I-1
tp141
F0.6093096531527186
s(I1
I0
tp142
F0.4650181554299586
s(I-1
I0
tp143
F0.2607602845390259
ssS'1110200100'
p144
(dp145
(I0
I-1
tp146
F0.3810236249232707
s(I1
I0
tp147
F1.0466501474578702
s(I-1
I0
tp148
F0.32422861306158757
ssS'0111200010'
p149
(dp150
(I0
I1
tp151
F0.23544085999056585
s(I0
I-1
tp152
F0.39733846306704174
s(I1
I0
tp153
F0.14647680340833835
ssS'1000100000'
p154
(dp155
(I-1
I0
tp156
F0.6751200409855593
ssS'1100100000'
p157
(dp158
(I1
I0
tp159
F0.01596632845087831
s(I-1
I0
tp160
F0.15500731225473216
ssS'1110300000'
p161
(dp162
(I0
I-1
tp163
F0.30531977332460136
s(I1
I0
tp164
F0.5274287985566536
s(I-1
I0
tp165
F0.2322957311739976
ss.