(dp0
S'1101100010'
p1
(dp2
(I0
I1
tp3
F0.22364763496217643
s(I1
I0
tp4
F0.037127024256959684
s(I-1
I0
tp5
F2.8703885105400384
ssS'1010300100'
p6
(dp7
(I0
I-1
tp8
F3.582934405546771
s(I-1
I0
tp9
F0.4331432833308724
ssS'1011310000'
p10
(dp11
(I0
I1
tp12
F3.075066555099295
s(I0
I-1
tp13
F0.00037551193665841254
s(I-1
I0
tp14
F0.18624400380749737
ssS'0110300100'
p15
(dp16
(I0
I-1
tp17
F0.6780280626313221
s(I1
I0
tp18
F0.20830445274848952
ssS'0101401000'
p19
(dp20
(I0
I1
tp21
F5.324067694495048
s(I1
I0
tp22
F0.1460352615704287
ssS'1111101000'
p23
(dp24
(I0
I1
tp25
F0.11885525501193173
s(I0
I-1
tp26
F0.27165341370171353
s(I1
I0
tp27
F-1.0895477373906575
s(I-1
I0
tp28
F3.6477137000738313
ssS'1100210000'
p29
(dp30
(I1
I0
tp31
F1.4578160996779235
s(I-1
I0
tp32
F-1.5500585126162543
ssS'1010110000'
p33
(dp34
(I0
I-1
tp35
F0.9400786083728853
s(I-1
I0
tp36
F0.7064766033692406
ssS'1111210000'
p37
(dp38
(I0
I1
tp39
F0.22636484603505747
s(I0
I-1
tp40
F0.8498168159877179
s(I1
I0
tp41
F0.17411507214784094
s(I-1
I0
tp42
F0.623196043003429
ssS'1011400000'
p43
(dp44
(I0
I1
tp45
F-0.2615584315378662
s(I0
I-1
tp46
F-1.205028323624763
s(I-1
I0
tp47
F1.4021834358631635
ssS'1101100000'
p48
(dp49
(I0
I1
tp50
F-0.09531207799322797
s(I1
I0
tp51
F-0.11635407496766396
s(I-1
I0
tp52
F4.695878839091487
ssS'1111100000'
p53
(dp54
(I0
I1
tp55
F2.583993683563009
s(I0
I-1
tp56
F0.10785069238527585
s(I1
I0
tp57
F0.08644274928169428
s(I-1
I0
tp58
F0.024667878440735674
ssS'1001100010'
p59
(dp60
(I0
I1
tp61
F-1.7592147640277431
s(I-1
I0
tp62
F3.9161012836801907
ssS'0110200100'
p63
(dp64
(I0
I-1
tp65
F-0.7751870424940415
s(I1
I0
tp66
F0.6043445089491855
ssS'1001400000'
p67
(dp68
(I0
I1
tp69
F-0.32107605779447695
s(I-1
I0
tp70
F0.8436034150760257
ssS'0011300000'
p71
(dp72
(I0
I1
tp73
F-0.39409641957790276
s(I0
I-1
tp74
F0.9269563181222915
ssS'1100200000'
p75
(dp76
(I1
I0
tp77
F0.18749562684742377
s(I-1
I0
tp78
F-1.912816047173409
ssS'0101201000'
p79
(dp80
(I0
I1
tp81
F1.4195185356926867
s(I1
I0
tp82
F0.773898830541741
ssS'0110200000'
p83
(dp84
(I0
I-1
tp85
F-0.2570120313809461
s(I1
I0
tp86
F3.5567647867229133
ssS'0101200010'
p87
(dp88
(I0
I1
tp89
F0.0010811779210319061
s(I1
I0
tp90
F0.38224769905970374
ssS'0011300100'
p91
(dp92
(I0
I1
tp93
F0.31240477055431415
s(I0
I-1
tp94
F2.4262205473346126
ssS'1011410000'
p95
(dp96
(I0
I1
tp97
F0.5303178359362226
s(I0
I-1
tp98
F0.22959215313543468
s(I-1
I0
tp99
F0.9255924895109203
ssS'1111300010'
p100
(dp101
(I0
I1
tp102
F-0.8712039834193332
s(I0
I-1
tp103
F0.06978958518059564
s(I1
I0
tp104
F3.2537523389663763
s(I-1
I0
tp105
F0.35715152976751374
ssS'1100101000'
p106
(dp107
(I1
I0
tp108
F-0.7764167587623776
s(I-1
I0
tp109
F2.605328254848038
ssS'0110301000'
p110
(dp111
(I0
I-1
tp112
F1.3173649333852624
s(I1
I0
tp113
F-0.6503412119723841
ssS'0111300000'
p114
(dp115
(I0
I1
tp116
F-0.02675212532413859
s(I0
I-1
tp117
F2.1809412581537573
s(I1
I0
tp118
F-0.01320790445943414
ssS'0110300000'
p119
(dp120
(I0
I-1
tp121
F2.781748060297961
s(I1
I0
tp122
F-0.1518336279054901
ssS'1101400000'
p123
(dp124
(I0
I1
tp125
F2.239859286328259
s(I1
I0
tp126
F-0.0497714610999939
s(I-1
I0
tp127
F-0.048777665081249956
ssS'0111201000'
p128
(dp129
(I0
I1
tp130
F0.26955675491591063
s(I0
I-1
tp131
F2.6529694015417062
s(I1
I0
tp132
F0.1000679448415559
ssS'1011300000'
p133
(dp134
(I0
I1
tp135
F0.029652303348595668
s(I0
I-1
tp136
F3.0118427657366764
s(I-1
I0
tp137
F0.01519971642410943
ssS'1011400100'
p138
(dp139
(I0
I1
tp140
F3.444244267043644
s(I0
I-1
tp141
F0.03765904759403571
s(I-1
I0
tp142
F0.5218686716644411
ssS'1101210000'
p143
(dp144
(I0
I1
tp145
F0.14470119516165725
s(I1
I0
tp146
F0.11717710208599763
s(I-1
I0
tp147
F0.7735757238410801
ssS'1111400100'
p148
(dp149
(I0
I1
tp150
F0.7695145729444511
s(I0
I-1
tp151
F0.29895873540759155
s(I1
I0
tp152
F4.09165265365483
s(I-1
I0
tp153
F0.3630468863539057
ssS'1100201000'
p154
(dp155
(I1
I0
tp156
F3.304439833663023
s(I-1
I0
tp157
F-0.28261648290929764
ssS'1100100000'
p158
(dp159
(I1
I0
tp160
F-0.8970325198812268
s(I-1
I0
tp161
F1.2062212996269528
ssS'1010100000'
p162
(dp163
(I0
I-1
tp164
F-1.3152130618074174
s(I-1
I0
tp165
F1.8824328389863147
ssS'1111400000'
p166
(dp167
(I0
I1
tp168
F-0.15234969149784594
s(I0
I-1
tp169
F-0.8974619617067143
s(I1
I0
tp170
F2.5308754718483426
s(I-1
I0
tp171
F-0.15282994427880742
ssS'1001400010'
p172
(dp173
(I0
I1
tp174
F3.34593631897372
s(I-1
I0
tp175
F0.1690831804077475
ssS'1101400010'
p176
(dp177
(I0
I1
tp178
F0.0038518240219896915
s(I1
I0
tp179
F0.915903270428861
s(I-1
I0
tp180
F0.1373324236123895
ssS'0011400100'
p181
(dp182
(I0
I1
tp183
F3.582646862871934
s(I0
I-1
tp184
F0.17506205294471766
ssS'1011110000'
p185
(dp186
(I0
I1
tp187
F0.0069258901526692875
s(I0
I-1
tp188
F-0.018425414153619972
s(I-1
I0
tp189
F1.0857709306701275
ssS'1010100100'
p190
(dp191
(I0
I-1
tp192
F-0.3568258791607348
s(I-1
I0
tp193
F3.9808360068529773
ssS'1101101000'
p194
(dp195
(I0
I1
tp196
F2.3825481090762093
s(I1
I0
tp197
F-1.6807099682068258
s(I-1
I0
tp198
F0.10350935445356971
ssS'1101200000'
p199
(dp200
(I0
I1
tp201
F0.3494996868866609
s(I1
I0
tp202
F3.175611779601999
s(I-1
I0
tp203
F0.3060287691163437
ssS'0011400000'
p204
(dp205
(I0
I1
tp206
F1.1298737918149675
s(I0
I-1
tp207
F-1.476548179817472
ssS'1100110000'
p208
(dp209
(I1
I0
tp210
F1.033342131262359
s(I-1
I0
tp211
F0.05858817071534296
ssS'1110100000'
p212
(dp213
(I0
I-1
tp214
F0.032788076924867404
s(I1
I0
tp215
F0.03614450564210135
s(I-1
I0
tp216
F3.09864438415003
ssS'0011400010'
p217
(dp218
(I0
I1
tp219
F3.620772404173035
s(I0
I-1
tp220
F0.4514026482667943
ssS'0011300010'
p221
(dp222
(I0
I1
tp223
F-0.13010304588532523
s(I0
I-1
tp224
F3.52790319545326
ssS'0111301000'
p225
(dp226
(I0
I1
tp227
F0.6597131709233218
s(I0
I-1
tp228
F3.0624061473531667
s(I1
I0
tp229
F0.03673937143065242
ssS'0111400100'
p230
(dp231
(I0
I1
tp232
F1.7616315228075088
s(I0
I-1
tp233
F-1.4333917760097898
s(I1
I0
tp234
F0.29819623728977607
ssS'1110210000'
p235
(dp236
(I0
I-1
tp237
F1.779970402263274
s(I1
I0
tp238
F0.0015559153658152303
s(I-1
I0
tp239
F-1.0225901259720231
ssS'1110300100'
p240
(dp241
(I0
I-1
tp242
F0.4727557532054655
s(I1
I0
tp243
F1.8281312599801245
s(I-1
I0
tp244
F0.5841859497360026
ssS'1001100000'
p245
(dp246
(I0
I1
tp247
F0.16938057126368022
s(I-1
I0
tp248
F2.1708350681238175
ssS'1110101000'
p249
(dp250
(I0
I-1
tp251
F0.08633175982330399
s(I1
I0
tp252
F-1.2395311241464348
s(I-1
I0
tp253
F1.5656790927104802
ssS'1111200000'
p254
(dp255
(I0
I1
tp256
F0.049025002276867576
s(I0
I-1
tp257
F0.05691004659115449
s(I1
I0
tp258
F2.0674886306008653
s(I-1
I0
tp259
F0.05114331602020163
ssS'0111401000'
p260
(dp261
(I0
I1
tp262
F3.29653926961355
s(I0
I-1
tp263
F0.6411863618704067
s(I1
I0
tp264
F0.05938758241670161
ssS'1010300000'
p265
(dp266
(I0
I-1
tp267
F2.366806121991901
s(I-1
I0
tp268
F-0.24779550424820776
ssS'0101200000'
p269
(dp270
(I0
I1
tp271
F-0.22835061196263073
s(I1
I0
tp272
F2.447183240255553
ssS'1001410000'
p273
(dp274
(I0
I1
tp275
F2.4503368020950678
s(I-1
I0
tp276
F0.5106779439146668
ssS'1001110000'
p277
(dp278
(I0
I1
tp279
F0.005894812654042014
s(I-1
I0
tp280
F0.33865059708482076
ssS'1111300000'
p281
(dp282
(I0
I1
tp283
F0.5463788115226764
s(I0
I-1
tp284
F2.9385625354961347
s(I1
I0
tp285
F0.5319779931477179
s(I-1
I0
tp286
F0.5390706171688432
ssS'0111400000'
p287
(dp288
(I0
I1
tp289
F4.498994945850807
s(I0
I-1
tp290
F-0.07448079445535342
s(I1
I0
tp291
F-0.07862605108429861
ssS'1010310000'
p292
(dp293
(I0
I-1
tp294
F1.618205251972131
s(I-1
I0
tp295
F0.13733867576446102
ssS'1110200000'
p296
(dp297
(I0
I-1
tp298
F0.006608043362246739
s(I1
I0
tp299
F3.907372488063867
s(I-1
I0
tp300
F0.010778104427705567
ssS'0110201000'
p301
(dp302
(I0
I-1
tp303
F0.9331861087891604
s(I1
I0
tp304
F-2.1105129202733672
ssS'0101400010'
p305
(dp306
(I0
I1
tp307
F3.2822813629591443
s(I1
I0
tp308
F0.2756778758160503
ssS'1011300010'
p309
(dp310
(I0
I1
tp311
F0.19852683769529156
s(I0
I-1
tp312
F3.314079488831003
s(I-1
I0
tp313
F0.43142007991994236
ssS'1110200100'
p314
(dp315
(I0
I-1
tp316
F1.4979117983654953
s(I1
I0
tp317
F0.33703038333268476
s(I-1
I0
tp318
F0.6115256998413445
ssS'1110300000'
p319
(dp320
(I0
I-1
tp321
F3.969187620004175
s(I1
I0
tp322
F0.23832866592271112
s(I-1
I0
tp323
F0.233683075377563
ssS'1110100100'
p324
(dp325
(I0
I-1
tp326
F0.40105464398617097
s(I1
I0
tp327
F0.11170862486799515
s(I-1
I0
tp328
F2.3999116081084066
ssS'1011100000'
p329
(dp330
(I0
I1
tp331
F-0.26072449384031954
s(I0
I-1
tp332
F-0.25643398858652067
s(I-1
I0
tp333
F2.135504078545486
ssS'0111200000'
p334
(dp335
(I0
I1
tp336
F-0.34300787730828697
s(I0
I-1
tp337
F-0.3435483767216075
s(I1
I0
tp338
F3.9473265964154227
ssS'0111300010'
p339
(dp340
(I0
I1
tp341
F0.008778735395378101
s(I0
I-1
tp342
F0.15886320275179444
s(I1
I0
tp343
F0.6737034336485606
ssS'0101400000'
p344
(dp345
(I0
I1
tp346
F2.3859741387516498
s(I1
I0
tp347
F-0.08431210390409394
ss.