(dp0
S'1101100010'
p1
(dp2
(I0
I1
tp3
F0.03478900029780322
s(I1
I0
tp4
F0.0379554676802369
s(I-1
I0
tp5
F0.07885850890285104
ssS'1100210000'
p6
(dp7
(I1
I0
tp8
F-0.04984010521809854
s(I-1
I0
tp9
F-0.5536516455168404
ssS'0101410000'
p10
(dp11
(I0
I1
tp12
F0.15551859387328526
s(I1
I0
tp13
F0.52070089999532
ssS'1001400000'
p14
(dp15
(I0
I1
tp16
F-0.049999999222524516
s(I-1
I0
tp17
F-0.07988495913358536
ssS'0011300000'
p18
(dp19
(I0
I1
tp20
F-0.05000000000000007
s(I0
I-1
tp21
F-0.04999999999999993
ssS'0111310000'
p22
(dp23
(I0
I1
tp24
F0.13497592618133225
s(I0
I-1
tp25
F3.040228622285304
s(I1
I0
tp26
F0.5310495076025897
ssS'1010101000'
p27
(dp28
(I0
I-1
tp29
F0.4286469650174335
s(I-1
I0
tp30
F1.5262111965778076
ssS'0111300000'
p31
(dp32
(I0
I1
tp33
F-0.20369037422143327
s(I0
I-1
tp34
F-0.04999792882867645
s(I1
I0
tp35
F-0.1420355974301585
ssS'1110100100'
p36
(dp37
(I0
I-1
tp38
F-1.2471986493805742
s(I1
I0
tp39
F0.37488946280334445
s(I-1
I0
tp40
F-0.21886702451378037
ssS'1011300100'
p41
(dp42
(I0
I1
tp43
F-0.049732228729267615
s(I0
I-1
tp44
F-0.26242498580395335
s(I-1
I0
tp45
F-0.26824928649321383
ssS'0101400010'
p46
(dp47
(I0
I1
tp48
F0.30937187789369686
s(I1
I0
tp49
F-0.3148695808203239
ssS'1101400100'
p50
(dp51
(I0
I1
tp52
F0.44041723409117495
s(I1
I0
tp53
F1.1321515042389412
s(I-1
I0
tp54
F0.843526290971175
ssS'1101210000'
p55
(dp56
(I0
I1
tp57
F0.11855307263958803
s(I1
I0
tp58
F0.13753394770290533
s(I-1
I0
tp59
F-0.5608889223350596
ssS'1100100000'
p60
(dp61
(I1
I0
tp62
F-0.05000000000000007
s(I-1
I0
tp63
F-0.04999999999999993
ssS'1111210000'
p64
(dp65
(I0
I1
tp66
F-0.3132026991115727
s(I0
I-1
tp67
F-0.3142884121465408
s(I1
I0
tp68
F0.08498879027150026
s(I-1
I0
tp69
F-0.8852959378720558
ssS'1110201000'
p70
(dp71
(I0
I-1
tp72
F-0.23641756841338218
s(I1
I0
tp73
F0.3773116472613715
s(I-1
I0
tp74
F-0.05915532959683381
ssS'1101101000'
p75
(dp76
(I0
I1
tp77
F0.23495808757545714
s(I1
I0
tp78
F-0.787153014743239
s(I-1
I0
tp79
F-0.0331284060007574
ssS'1001400010'
p80
(dp81
(I0
I1
tp82
F-0.28590040474778255
s(I-1
I0
tp83
F2.5759483049682514
ssS'0011400000'
p84
(dp85
(I0
I1
tp86
F-0.04999999999999993
s(I0
I-1
tp87
F-0.05000000000000007
ssS'1110210000'
p88
(dp89
(I0
I-1
tp90
F-0.04999027426384575
s(I1
I0
tp91
F-0.23102808437448838
s(I-1
I0
tp92
F-1.0552325862030436
ssS'1011400100'
p93
(dp94
(I0
I1
tp95
F-0.08724003722478206
s(I0
I-1
tp96
F-0.31501730168608005
s(I-1
I0
tp97
F-0.048808634424320076
ssS'0100210000'
p98
(dp99
(I1
I0
tp100
F0.06831710426381185
ssS'1001410000'
p101
(dp102
(I0
I1
tp103
F0.3963076434609919
s(I-1
I0
tp104
F-0.9279972168775493
ssS'1010310000'
p105
(dp106
(I0
I-1
tp107
F0.7393732429596253
s(I-1
I0
tp108
F-0.9287756636689187
ssS'1111100010'
p109
(dp110
(I0
I1
tp111
F-0.22324466172609914
s(I0
I-1
tp112
F0.03370381604813679
s(I1
I0
tp113
F-0.22295496589351232
s(I-1
I0
tp114
F-0.23420897793698844
ssS'0111300010'
p115
(dp116
(I0
I1
tp117
F-1.8063708012901836
s(I0
I-1
tp118
F-0.14194032897901238
s(I1
I0
tp119
F0.043394085634436225
ssS'0111400000'
p120
(dp121
(I0
I1
tp122
F-0.049996582777664736
s(I0
I-1
tp123
F-0.46607280211992036
s(I1
I0
tp124
F-0.3719758852706194
ssS'1101200010'
p125
(dp126
(I0
I1
tp127
F0.011593379458873412
s(I1
I0
tp128
F1.514849614729302
s(I-1
I0
tp129
F-0.01884381908008745
ssS'1000100000'
p130
(dp131
(I-1
I0
tp132
F-0.04999991473861927
ssS'1110300000'
p133
(dp134
(I0
I-1
tp135
F-0.04122146791622603
s(I1
I0
tp136
F-0.16252701047540483
s(I-1
I0
tp137
F-0.2853757752340448
ssS'0011400010'
p138
(dp139
(I0
I1
tp140
F0.03268975851362624
s(I0
I-1
tp141
F-0.05000777166455517
ssS'1110301000'
p142
(dp143
(I0
I-1
tp144
F0.5058119608127636
s(I1
I0
tp145
F-0.043750691904846886
s(I-1
I0
tp146
F-0.041084941291119496
ssS'1101401000'
p147
(dp148
(I0
I1
tp149
F0.42931875756510685
s(I1
I0
tp150
F0.402222134046314
s(I-1
I0
tp151
F4.8164260250887345
ssS'1000110001'
p152
(dp153
(I-1
I0
tp154
F-0.05220611836008861
ssS'1011100100'
p155
(dp156
(I0
I1
tp157
F0.0963403767236247
s(I0
I-1
tp158
F0.3345049098846555
s(I-1
I0
tp159
F0.04769957193462303
ssS'1111200000'
p160
(dp161
(I0
I1
tp162
F-0.05000010141644111
s(I0
I-1
tp163
F-0.04999999999999993
s(I1
I0
tp164
F-0.9698415677828156
s(I-1
I0
tp165
F-0.9865226849714357
ssS'0110200100'
p166
(dp167
(I0
I-1
tp168
F-1.1674257995737207
s(I1
I0
tp169
F0.2132672439355723
ssS'1111300100'
p170
(dp171
(I0
I1
tp172
F0.38952827235822257
s(I0
I-1
tp173
F0.3665909276990057
s(I1
I0
tp174
F0.7740738161760793
s(I-1
I0
tp175
F0.36552758598955837
ssS'0011300100'
p176
(dp177
(I0
I1
tp178
F-0.050091564254228144
s(I0
I-1
tp179
F-0.049716426760223746
ssS'1111201000'
p180
(dp181
(I0
I1
tp182
F-0.22871934884857203
s(I0
I-1
tp183
F-0.19894871587133697
s(I1
I0
tp184
F0.1303715285078606
s(I-1
I0
tp185
F-0.14857750006288128
ssS'0110301000'
p186
(dp187
(I0
I-1
tp188
F-0.03438458894375155
s(I1
I0
tp189
F-0.05547080396679757
ssS'0110300000'
p190
(dp191
(I0
I-1
tp192
F-0.05018781186943272
s(I1
I0
tp193
F-0.2637500444763528
ssS'1111100000'
p194
(dp195
(I0
I1
tp196
F-0.04999999999999981
s(I0
I-1
tp197
F-0.050000000000008156
s(I1
I0
tp198
F-1.0837796413088054
s(I-1
I0
tp199
F-0.40284228110224285
ssS'1011300000'
p200
(dp201
(I0
I1
tp202
F-0.050038453387533426
s(I0
I-1
tp203
F-0.04999999908631741
s(I-1
I0
tp204
F-0.517090882370788
ssS'1111400100'
p205
(dp206
(I0
I1
tp207
F-0.026161362798007057
s(I0
I-1
tp208
F-0.0258562660430504
s(I1
I0
tp209
F-0.025723262616870808
s(I-1
I0
tp210
F-0.02669944124155462
ssS'1100201000'
p211
(dp212
(I1
I0
tp213
F-0.11633203545119698
s(I-1
I0
tp214
F-0.04999999999977379
ssS'1010100000'
p215
(dp216
(I0
I-1
tp217
F-0.06402704779787183
s(I-1
I0
tp218
F-0.04931405271839341
ssS'1111400000'
p219
(dp220
(I0
I1
tp221
F-0.04999999999998736
s(I0
I-1
tp222
F-0.05000000000000007
s(I1
I0
tp223
F-0.9672556494667096
s(I-1
I0
tp224
F-0.1352671164950663
ssS'1010300010'
p225
(dp226
(I0
I-1
tp227
F0.5172389465100299
s(I-1
I0
tp228
F0.036425485872125574
ssS'0111210000'
p229
(dp230
(I0
I1
tp231
F2.1501474852116575
s(I0
I-1
tp232
F0.21463359925700026
s(I1
I0
tp233
F0.07450479067809401
ssS'0111410000'
p234
(dp235
(I0
I1
tp236
F0.07896068754134289
s(I0
I-1
tp237
F0.20833329633097708
s(I1
I0
tp238
F0.4033354907099088
ssS'1001100000'
p239
(dp240
(I0
I1
tp241
F-0.050000000000441316
s(I-1
I0
tp242
F-0.047047929061341746
ssS'1111200010'
p243
(dp244
(I0
I1
tp245
F-0.23121767890146283
s(I0
I-1
tp246
F-0.08732887050931602
s(I1
I0
tp247
F0.12230206643293359
s(I-1
I0
tp248
F-0.20653693610432003
ssS'1011410000'
p249
(dp250
(I0
I1
tp251
F-0.3960894472563847
s(I0
I-1
tp252
F0.08441044304116087
s(I-1
I0
tp253
F-1.7877559598937056
ssS'0100201001'
p254
(dp255
(I1
I0
tp256
F-1.2660710668502468
ssS'1110310000'
p257
(dp258
(I0
I-1
tp259
F1.3795056858052794
s(I1
I0
tp260
F0.045567596198100864
s(I-1
I0
tp261
F0.02535946816669344
ssS'1011300010'
p262
(dp263
(I0
I1
tp264
F0.19226184346435052
s(I0
I-1
tp265
F0.1295955993387549
s(I-1
I0
tp266
F1.7595190765928967
ssS'1001401000'
p267
(dp268
(I0
I1
tp269
F0.21384653383218616
s(I-1
I0
tp270
F4.331719743144554
ssS'0101400000'
p271
(dp272
(I0
I1
tp273
F-0.2835908710143125
s(I1
I0
tp274
F-0.04999999997419109
ssS'1110110000'
p275
(dp276
(I0
I-1
tp277
F-0.3139058259963322
s(I1
I0
tp278
F-0.2572623292626194
s(I-1
I0
tp279
F1.674677521883187
ssS'0110210000'
p280
(dp281
(I0
I-1
tp282
F0.1756323049262538
s(I1
I0
tp283
F1.3618246451430776
ssS'0111301000'
p284
(dp285
(I0
I1
tp286
F0.7655074309190565
s(I0
I-1
tp287
F0.1606933183826637
s(I1
I0
tp288
F-1.2406613535745932
ssS'1100200100'
p289
(dp290
(I1
I0
tp291
F0.6494968113891026
s(I-1
I0
tp292
F-0.41828954788030975
ssS'1010110000'
p293
(dp294
(I0
I-1
tp295
F-0.375892632529502
s(I-1
I0
tp296
F0.5774872529956924
ssS'1011310000'
p297
(dp298
(I0
I1
tp299
F0.21303473759502933
s(I0
I-1
tp300
F-0.10677770987586244
s(I-1
I0
tp301
F-0.09983676539892833
ssS'1011100000'
p302
(dp303
(I0
I1
tp304
F-0.05000000000000007
s(I0
I-1
tp305
F-0.05000000018487263
s(I-1
I0
tp306
F-0.04131903028096433
ssS'0110200000'
p307
(dp308
(I0
I-1
tp309
F-0.04999999994610446
s(I1
I0
tp310
F-0.3128806323566283
ssS'1111400010'
p311
(dp312
(I0
I1
tp313
F-0.060109778072362376
s(I0
I-1
tp314
F-0.050022546532518704
s(I1
I0
tp315
F0.12203002444436073
s(I-1
I0
tp316
F-0.05293607174787905
ssS'0101401000'
p317
(dp318
(I0
I1
tp319
F-0.04879384594588664
s(I1
I0
tp320
F-0.05071306489730392
ssS'1000101000'
p321
(dp322
(I-1
I0
tp323
F-0.01695143460893246
ssS'1011401000'
p324
(dp325
(I0
I1
tp326
F0.46713386911440036
s(I0
I-1
tp327
F0.041065681149994315
s(I-1
I0
tp328
F4.291506926537979
ssS'0111400010'
p329
(dp330
(I0
I1
tp331
F0.0037072238021924747
s(I0
I-1
tp332
F-0.08155644669250717
s(I1
I0
tp333
F1.2297535740341115
ssS'1110200010'
p334
(dp335
(I0
I-1
tp336
F0.015972634937268294
s(I1
I0
tp337
F0.6360155771738815
s(I-1
I0
tp338
F-0.06381570855291321
ssS'0111201000'
p339
(dp340
(I0
I1
tp341
F-0.24624050678268433
s(I0
I-1
tp342
F-0.5491666030547238
s(I1
I0
tp343
F-1.0568056557746894
ssS'1111100100'
p344
(dp345
(I0
I1
tp346
F0.031800315355162256
s(I0
I-1
tp347
F0.5872632046768038
s(I1
I0
tp348
F0.22459769126700613
s(I-1
I0
tp349
F0.9018341293408061
ssS'1111301000'
p350
(dp351
(I0
I1
tp352
F-0.18210767688168003
s(I0
I-1
tp353
F-0.12525296678611533
s(I1
I0
tp354
F-0.12418327259507614
s(I-1
I0
tp355
F0.19589186262590091
ssS'0101201000'
p356
(dp357
(I0
I1
tp358
F-0.061909723016123436
s(I1
I0
tp359
F-0.048810114416258765
ssS'1010100100'
p360
(dp361
(I0
I-1
tp362
F-1.5030149028360003
s(I-1
I0
tp363
F0.630423565559122
ssS'1111401000'
p364
(dp365
(I0
I1
tp366
F-0.16611473390752785
s(I0
I-1
tp367
F-0.18665465115528687
s(I1
I0
tp368
F0.17784819669638857
s(I-1
I0
tp369
F-0.13221757708738568
ssS'1011100010'
p370
(dp371
(I0
I1
tp372
F0.02937381732503356
s(I0
I-1
tp373
F0.17162808644764635
s(I-1
I0
tp374
F0.005601137718563326
ssS'1100110000'
p375
(dp376
(I1
I0
tp377
F-0.188401505525228
s(I-1
I0
tp378
F0.22413418240277735
ssS'1110100000'
p379
(dp380
(I0
I-1
tp381
F-0.17784241094960382
s(I1
I0
tp382
F-0.055503077334126
s(I-1
I0
tp383
F-0.04991018934610801
ssS'1110300010'
p384
(dp385
(I0
I-1
tp386
F0.11977155607706572
s(I1
I0
tp387
F0.3919913697692468
s(I-1
I0
tp388
F0.07450385729509132
ssS'0011410000'
p389
(dp390
(I0
I1
tp391
F0.4879935831124485
s(I0
I-1
tp392
F-0.1930400447599968
ssS'1001100100'
p393
(dp394
(I0
I1
tp395
F0.4885430320793843
s(I-1
I0
tp396
F0.22046398238188708
ssS'1110101000'
p397
(dp398
(I0
I-1
tp399
F-0.12072651091152915
s(I1
I0
tp400
F-0.052067356428942564
s(I-1
I0
tp401
F-0.049983679970509676
ssS'0111400100'
p402
(dp403
(I0
I1
tp404
F0.08846297944616878
s(I0
I-1
tp405
F-1.781332405947029
s(I1
I0
tp406
F-0.14075932979427194
ssS'0111401000'
p407
(dp408
(I0
I1
tp409
F-0.05820584822558681
s(I0
I-1
tp410
F0.18186188503894024
s(I1
I0
tp411
F-0.8555939971111124
ssS'0101200000'
p412
(dp413
(I0
I1
tp414
F-1.5941159840890389
s(I1
I0
tp415
F-0.049999969360268
ssS'1011110000'
p416
(dp417
(I0
I1
tp418
F0.0013344898650663635
s(I0
I-1
tp419
F0.5662235278244183
s(I-1
I0
tp420
F-0.5488700387102948
ssS'1111200100'
p421
(dp422
(I0
I1
tp423
F0.04046939549968942
s(I0
I-1
tp424
F0.45196625209889163
s(I1
I0
tp425
F1.4394115253821615
s(I-1
I0
tp426
F0.08444521626898482
ssS'0011401000'
p427
(dp428
(I0
I1
tp429
F0.36636120286436363
s(I0
I-1
tp430
F-0.271714089058102
ssS'1110200000'
p431
(dp432
(I0
I-1
tp433
F-0.4768171505676303
s(I1
I0
tp434
F-0.049999999999937456
s(I-1
I0
tp435
F-0.06656738666548181
ssS'1101400010'
p436
(dp437
(I0
I1
tp438
F0.076609603447512
s(I1
I0
tp439
F1.0529121605190281
s(I-1
I0
tp440
F0.32424035696083064
ssS'1111310000'
p441
(dp442
(I0
I1
tp443
F0.2786989655186948
s(I0
I-1
tp444
F0.5205014076104484
s(I1
I0
tp445
F0.6960216600348468
s(I-1
I0
tp446
F1.4268711009497785
ssS'1001101000'
p447
(dp448
(I0
I1
tp449
F1.1153697978918247
s(I-1
I0
tp450
F0.1554584443747058
ssS'0111200010'
p451
(dp452
(I0
I1
tp453
F-0.05821136143072011
s(I0
I-1
tp454
F-0.1327595139466454
s(I1
I0
tp455
F0.7242745560922661
ssS'1010300000'
p456
(dp457
(I0
I-1
tp458
F-0.04751802719100992
s(I-1
I0
tp459
F-0.348364806145379
ssS'1010300100'
p460
(dp461
(I0
I-1
tp462
F-0.11071667784286757
s(I-1
I0
tp463
F1.092083010621713
ssS'1111101000'
p464
(dp465
(I0
I1
tp466
F-1.1335835181152345
s(I0
I-1
tp467
F-0.814417664264315
s(I1
I0
tp468
F-0.05363040145280665
s(I-1
I0
tp469
F-0.04988340369612689
ssS'1001400100'
p470
(dp471
(I0
I1
tp472
F-0.018535421990323507
s(I-1
I0
tp473
F0.9816030463862147
ssS'0011301000'
p474
(dp475
(I0
I1
tp476
F-0.31323628477649756
s(I0
I-1
tp477
F0.18517727157035357
ssS'1011400010'
p478
(dp479
(I0
I1
tp480
F1.672858518028114
s(I0
I-1
tp481
F0.07122570193614601
s(I-1
I0
tp482
F0.051637705134256695
ssS'0100200000'
p483
(dp484
(I1
I0
tp485
F-0.09029090661586713
ssS'1111410000'
p486
(dp487
(I0
I1
tp488
F0.008189071042732277
s(I0
I-1
tp489
F0.08324961007194281
s(I1
I0
tp490
F0.08006396794506496
s(I-1
I0
tp491
F0.8565932590965839
ssS'1100200000'
p492
(dp493
(I1
I0
tp494
F-0.04999999999999993
s(I-1
I0
tp495
F-0.05000000000000007
ssS'1110100010'
p496
(dp497
(I0
I-1
tp498
F0.12812248105151725
s(I1
I0
tp499
F0.760853077685713
s(I-1
I0
tp500
F0.4015568449272728
ssS'0101200010'
p501
(dp502
(I0
I1
tp503
F-1.5481851281875456
s(I1
I0
tp504
F0.009421464159748837
ssS'1111110000'
p505
(dp506
(I0
I1
tp507
F0.03704522128686791
s(I0
I-1
tp508
F0.06049377631623387
s(I1
I0
tp509
F0.9218752442070769
s(I-1
I0
tp510
F0.7329036522947737
ssS'1111300010'
p511
(dp512
(I0
I1
tp513
F-0.3861611668327829
s(I0
I-1
tp514
F-0.04999981634346107
s(I1
I0
tp515
F-1.3119921073855725
s(I-1
I0
tp516
F-1.4688469820352743
ssS'0111300100'
p517
(dp518
(I0
I1
tp519
F-0.02031739398273566
s(I0
I-1
tp520
F-0.04560023350419029
s(I1
I0
tp521
F0.8195866938561711
ssS'1100100100'
p522
(dp523
(I1
I0
tp524
F-0.13497833005047244
s(I-1
I0
tp525
F1.9641981751919775
ssS'1101410000'
p526
(dp527
(I0
I1
tp528
F0.7623627250512516
s(I1
I0
tp529
F0.7144301392931933
s(I-1
I0
tp530
F0.15333169153216086
ssS'1101201000'
p531
(dp532
(I0
I1
tp533
F0.0629977179694595
s(I1
I0
tp534
F0.25291277207249385
s(I-1
I0
tp535
F-0.049580944384557755
ssS'1101400000'
p536
(dp537
(I0
I1
tp538
F-0.04668026602514041
s(I1
I0
tp539
F-0.10183161676405562
s(I-1
I0
tp540
F-0.3323258218768812
ssS'1100101000'
p541
(dp542
(I1
I0
tp543
F-0.5071566026072459
s(I-1
I0
tp544
F-0.0499999999971224
ssS'0101210000'
p545
(dp546
(I0
I1
tp547
F0.03663668027447131
s(I1
I0
tp548
F0.9036929015618135
ssS'0111200000'
p549
(dp550
(I0
I1
tp551
F-0.06189034848364665
s(I0
I-1
tp552
F-0.050143819701351816
s(I1
I0
tp553
F-0.04908514452872964
ssS'0110201000'
p554
(dp555
(I0
I-1
tp556
F-0.08959498427333838
s(I1
I0
tp557
F0.1776049252029938
ssS'1101100000'
p558
(dp559
(I0
I1
tp560
F-0.05010897151407963
s(I1
I0
tp561
F-0.0500000009464478
s(I-1
I0
tp562
F-0.049883564227219374
ssS'1101200000'
p563
(dp564
(I0
I1
tp565
F-0.07155005526853397
s(I1
I0
tp566
F-0.04999999999992951
s(I-1
I0
tp567
F-0.05000001821017985
ssS'0011310000'
p568
(dp569
(I0
I1
tp570
F-0.16161019907805865
s(I0
I-1
tp571
F0.3960063108401946
ssS'0011400100'
p572
(dp573
(I0
I1
tp574
F-0.04999999999999993
s(I0
I-1
tp575
F-0.05000000021694918
ssS'0111200100'
p576
(dp577
(I0
I1
tp578
F6.524530323597705
s(I0
I-1
tp579
F0.25905927175968246
s(I1
I0
tp580
F0.5804140607530084
ssS'1110300100'
p581
(dp582
(I0
I-1
tp583
F-0.370484571458722
s(I1
I0
tp584
F1.1402832535576173
s(I-1
I0
tp585
F-0.3714118198952734
ssS'0110300100'
p586
(dp587
(I0
I-1
tp588
F0.44469582648027434
s(I1
I0
tp589
F-0.004881037201405963
ssS'1100200010'
p590
(dp591
(I1
I0
tp592
F0.36360730419774323
s(I-1
I0
tp593
F-0.36897766630413603
ssS'0011300010'
p594
(dp595
(I0
I1
tp596
F-0.05000000000324687
s(I0
I-1
tp597
F-0.04999999999999993
ssS'1011400000'
p598
(dp599
(I0
I1
tp600
F-0.049998415244267534
s(I0
I-1
tp601
F-0.050163503893463725
s(I-1
I0
tp602
F-0.07412589555411139
ssS'1001110000'
p603
(dp604
(I0
I1
tp605
F0.3085308030756412
s(I-1
I0
tp606
F0.12179215948525587
ssS'1111300000'
p607
(dp608
(I0
I1
tp609
F-0.059589636582058174
s(I0
I-1
tp610
F-0.04999947916065123
s(I1
I0
tp611
F-0.8065007647345663
s(I-1
I0
tp612
F-1.1386208571400633
ssS'1011101000'
p613
(dp614
(I0
I1
tp615
F0.2216655810904853
s(I0
I-1
tp616
F0.20218818196262744
s(I-1
I0
tp617
F0.42915714760040413
ssS'1110200100'
p618
(dp619
(I0
I-1
tp620
F-1.5655654452048573
s(I1
I0
tp621
F-0.2525939063687188
s(I-1
I0
tp622
F1.5123671355914396
ssS'0101400100'
p623
(dp624
(I0
I1
tp625
F0.9534025399551364
s(I1
I0
tp626
F-0.004329121929058884
ssS'1100100010'
p627
(dp628
(I1
I0
tp629
F-0.09674316796925272
s(I-1
I0
tp630
F0.6632564664838547
ssS'1001100010'
p631
(dp632
(I0
I1
tp633
F-0.4179705612442888
s(I-1
I0
tp634
F-0.04901983393299504
ss.